target datalayout = "e-m:e-p270:32:32-p271:32:32-p272:64:64-i64:64-i128:128-f80:128-n8:16:32:64-S128"
target triple = "x86_64-pc-linux-gnu"

%struct._typeobject = type { %struct.PyVarObject, ptr, i64, i64, ptr, i64, ptr, ptr, ptr, ptr, ptr, ptr, ptr, ptr, ptr, ptr, ptr, ptr, ptr, i64, ptr, ptr, ptr, ptr, i64, ptr, ptr, ptr, ptr, ptr, ptr, ptr, ptr, ptr, i64, ptr, ptr, ptr, ptr, ptr, ptr, ptr, ptr, ptr, ptr, ptr, i32, ptr, ptr, i8, i16 }
%struct.PyVarObject = type { %struct._object, i64 }
%struct._object = type { %union.anon, ptr }
%union.anon = type { i64 }
%struct.anon = type { i32, i32 }

@PyExc_StopIteration = external global ptr, align 8
@PyExc_TypeError = external global ptr, align 8
@.str.83 = private unnamed_addr constant [5 x i8] c"next\00", align 1
@.str.160 = private unnamed_addr constant [35 x i8] c"'%.200s' object is not an iterator\00", align 1

; Function Attrs: alwaysinline nounwind uwtable
define internal void @Py_INCREF(ptr noundef %0) #3 {
  %2 = alloca ptr, align 8
  %3 = alloca i32, align 4
  %4 = alloca i32, align 4
  store ptr %0, ptr %2, align 8, !tbaa !4
  call void @llvm.lifetime.start.p0(i64 4, ptr %3) #9
  %5 = load ptr, ptr %2, align 8, !tbaa !4
  %6 = getelementptr inbounds nuw %struct._object, ptr %5, i32 0, i32 0
  %7 = getelementptr inbounds nuw %struct.anon, ptr %6, i32 0, i32 0
  %8 = load i32, ptr %7, align 8, !tbaa !74
  store i32 %8, ptr %3, align 4, !tbaa !38
  %9 = load i32, ptr %3, align 4, !tbaa !38
  %10 = icmp slt i32 %9, 0
  br i1 %10, label %11, label %12

11:                                               ; preds = %1
  store i32 1, ptr %4, align 4
  br label %18

12:                                               ; preds = %1
  %13 = load i32, ptr %3, align 4, !tbaa !38
  %14 = add i32 %13, 1
  %15 = load ptr, ptr %2, align 8, !tbaa !4
  %16 = getelementptr inbounds nuw %struct._object, ptr %15, i32 0, i32 0
  %17 = getelementptr inbounds nuw %struct.anon, ptr %16, i32 0, i32 0
  store i32 %14, ptr %17, align 8, !tbaa !74
  store i32 0, ptr %4, align 4
  br label %18

18:                                               ; preds = %12, %11
  call void @llvm.lifetime.end.p0(i64 4, ptr %3) #9
  %19 = load i32, ptr %4, align 4
  switch i32 %19, label %21 [
    i32 0, label %20
    i32 1, label %20
  ]

20:                                               ; preds = %18, %18
  ret void

21:                                               ; preds = %18
  unreachable
}

; Function Attrs: inlinehint nounwind uwtable
define internal ptr @_Py_NewRef(ptr noundef %0) #4 {
  %2 = alloca ptr, align 8
  store ptr %0, ptr %2, align 8, !tbaa !4
  %3 = load ptr, ptr %2, align 8, !tbaa !4
  call void @Py_INCREF(ptr noundef %3)
  %4 = load ptr, ptr %2, align 8, !tbaa !4
  ret ptr %4
}

; Function Attrs: inlinehint nounwind uwtable
define internal ptr @_Py_TYPE(ptr noundef %0) #4 {
  %2 = alloca ptr, align 8
  store ptr %0, ptr %2, align 8, !tbaa !4
  %3 = load ptr, ptr %2, align 8, !tbaa !4
  %4 = getelementptr inbounds nuw %struct._object, ptr %3, i32 0, i32 1
  %5 = load ptr, ptr %4, align 8, !tbaa !75
  ret ptr %5
}

; Function Attrs: nounwind uwtable
define internal ptr @builtin_next(ptr noundef %0, ptr noundef %1, i64 noundef %2) #0 {
  %4 = alloca ptr, align 8
  %5 = alloca ptr, align 8
  %6 = alloca ptr, align 8
  %7 = alloca i64, align 8
  %8 = alloca ptr, align 8
  %9 = alloca ptr, align 8
  %10 = alloca i32, align 4
  %11 = alloca ptr, align 8
  store ptr %0, ptr %5, align 8, !tbaa !4
  store ptr %1, ptr %6, align 8, !tbaa !44
  store i64 %2, ptr %7, align 8, !tbaa !40
  call void @llvm.lifetime.start.p0(i64 8, ptr %8) #9
  call void @llvm.lifetime.start.p0(i64 8, ptr %9) #9
  %12 = load i64, ptr %7, align 8, !tbaa !40
  %13 = icmp sle i64 1, %12
  br i1 %13, label %14, label %17

14:                                               ; preds = %3
  %15 = load i64, ptr %7, align 8, !tbaa !40
  %16 = icmp sle i64 %15, 2
  br i1 %16, label %22, label %17

17:                                               ; preds = %14, %3
  %18 = load i64, ptr %7, align 8, !tbaa !40
  %19 = call i32 @_PyArg_CheckPositional(ptr noundef @.str.83, i64 noundef %18, i64 noundef 1, i64 noundef 2)
  %20 = icmp ne i32 %19, 0
  br i1 %20, label %22, label %21

21:                                               ; preds = %17
  store ptr null, ptr %4, align 8
  store i32 1, ptr %10, align 4
  br label %72

22:                                               ; preds = %17, %14
  %23 = load ptr, ptr %6, align 8, !tbaa !44
  %24 = getelementptr ptr, ptr %23, i64 0
  %25 = load ptr, ptr %24, align 8, !tbaa !4
  store ptr %25, ptr %8, align 8, !tbaa !4
  %26 = load ptr, ptr %8, align 8, !tbaa !4
  %27 = call i32 @PyIter_Check(ptr noundef %26)
  %28 = icmp ne i32 %27, 0
  br i1 %28, label %36, label %29

29:                                               ; preds = %22
  %30 = load ptr, ptr @PyExc_TypeError, align 8, !tbaa !4
  %31 = load ptr, ptr %8, align 8, !tbaa !4
  %32 = call ptr @_Py_TYPE(ptr noundef %31)
  %33 = getelementptr inbounds nuw %struct._typeobject, ptr %32, i32 0, i32 1
  %34 = load ptr, ptr %33, align 8, !tbaa !148
  %35 = call ptr (ptr, ptr, ...) @PyErr_Format(ptr noundef %30, ptr noundef @.str.160, ptr noundef %34)
  store ptr null, ptr %4, align 8
  store i32 1, ptr %10, align 4
  br label %72

36:                                               ; preds = %22
  %37 = load ptr, ptr %8, align 8, !tbaa !4
  %38 = call ptr @_Py_TYPE(ptr noundef %37)
  %39 = getelementptr inbounds nuw %struct._typeobject, ptr %38, i32 0, i32 26
  %40 = load ptr, ptr %39, align 8, !tbaa !39
  %41 = load ptr, ptr %8, align 8, !tbaa !4
  %42 = call ptr %40(ptr noundef %41)
  store ptr %42, ptr %9, align 8, !tbaa !4
  %43 = load ptr, ptr %9, align 8, !tbaa !4
  %44 = icmp ne ptr %43, null
  br i1 %44, label %45, label %47

45:                                               ; preds = %36
  %46 = load ptr, ptr %9, align 8, !tbaa !4
  store ptr %46, ptr %4, align 8
  store i32 1, ptr %10, align 4
  br label %72

47:                                               ; preds = %36
  %48 = load i64, ptr %7, align 8, !tbaa !40
  %49 = icmp sgt i64 %48, 1
  br i1 %49, label %50, label %66

50:                                               ; preds = %47
  call void @llvm.lifetime.start.p0(i64 8, ptr %11) #9
  %51 = load ptr, ptr %6, align 8, !tbaa !44
  %52 = getelementptr ptr, ptr %51, i64 1
  %53 = load ptr, ptr %52, align 8, !tbaa !4
  store ptr %53, ptr %11, align 8, !tbaa !4
  %54 = call ptr @PyErr_Occurred()
  %55 = icmp ne ptr %54, null
  br i1 %55, label %56, label %62

56:                                               ; preds = %50
  %57 = load ptr, ptr @PyExc_StopIteration, align 8, !tbaa !4
  %58 = call i32 @PyErr_ExceptionMatches(ptr noundef %57)
  %59 = icmp ne i32 %58, 0
  br i1 %59, label %61, label %60

60:                                               ; preds = %56
  store ptr null, ptr %4, align 8
  store i32 1, ptr %10, align 4
  br label %65

61:                                               ; preds = %56
  call void @PyErr_Clear()
  br label %62

62:                                               ; preds = %61, %50
  %63 = load ptr, ptr %11, align 8, !tbaa !4
  %64 = call ptr @_Py_NewRef(ptr noundef %63)
  store ptr %64, ptr %4, align 8
  store i32 1, ptr %10, align 4
  br label %65

65:                                               ; preds = %62, %60
  call void @llvm.lifetime.end.p0(i64 8, ptr %11) #9
  br label %72

66:                                               ; preds = %47
  %67 = call ptr @PyErr_Occurred()
  %68 = icmp ne ptr %67, null
  br i1 %68, label %69, label %70

69:                                               ; preds = %66
  store ptr null, ptr %4, align 8
  store i32 1, ptr %10, align 4
  br label %72

70:                                               ; preds = %66
  %71 = load ptr, ptr @PyExc_StopIteration, align 8, !tbaa !4
  call void @PyErr_SetNone(ptr noundef %71)
  store ptr null, ptr %4, align 8
  store i32 1, ptr %10, align 4
  br label %72

72:                                               ; preds = %70, %69, %65, %45, %29, %21
  call void @llvm.lifetime.end.p0(i64 8, ptr %9) #9
  call void @llvm.lifetime.end.p0(i64 8, ptr %8) #9
  %73 = load ptr, ptr %4, align 8
  ret ptr %73
}