; Function Attrs: nounwind uwtable
define internal ptr @builtin_next(ptr readnone captures(none) %0, ptr noundef readonly captures(none) %1, i64 noundef %2) #0 {
  %4 = add i64 %2, -1
  %or.cond = icmp ult i64 %4, 2
  br i1 %or.cond, label %7, label %5

5:                                                ; preds = %3
  %6 = tail call i32 @_PyArg_CheckPositional(ptr noundef nonnull @.str.83, i64 noundef %2, i64 noundef 1, i64 noundef 2) #9
  %.not = icmp eq i32 %6, 0
  br i1 %.not, label %_Py_NewRef.exit, label %7

7:                                                ; preds = %3, %5
  %8 = load ptr, ptr %1, align 8, !tbaa !39
  %9 = tail call i32 @PyIter_Check(ptr noundef %8) #9
  %.not15 = icmp eq i32 %9, 0
  br i1 %.not15, label %10, label %16

10:                                               ; preds = %7
  %11 = load ptr, ptr @PyExc_TypeError, align 8, !tbaa !39
  %12 = getelementptr i8, ptr %8, i64 8
  %.val20 = load ptr, ptr %12, align 8, !tbaa !20
  %13 = getelementptr inbounds nuw i8, ptr %.val20, i64 24
  %14 = load ptr, ptr %13, align 8, !tbaa !144
  %15 = tail call ptr (ptr, ptr, ...) @PyErr_Format(ptr noundef %11, ptr noundef nonnull @.str.160, ptr noundef %14) #9
  br label %_Py_NewRef.exit

16:                                               ; preds = %7
  %17 = getelementptr i8, ptr %8, i64 8
  %.val = load ptr, ptr %17, align 8, !tbaa !20
  %18 = getelementptr inbounds nuw i8, ptr %.val, i64 224
  %19 = load ptr, ptr %18, align 8, !tbaa !37
  %20 = tail call ptr %19(ptr noundef %8) #9
  %.not16 = icmp eq ptr %20, null
  br i1 %.not16, label %21, label %_Py_NewRef.exit

21:                                               ; preds = %16
  %22 = icmp sgt i64 %2, 1
  br i1 %22, label %23, label %36

23:                                               ; preds = %21
  %24 = getelementptr i8, ptr %1, i64 8
  %25 = load ptr, ptr %24, align 8, !tbaa !39
  %26 = tail call ptr @PyErr_Occurred() #9
  %.not18 = icmp eq ptr %26, null
  br i1 %.not18, label %31, label %27

27:                                               ; preds = %23
  %28 = load ptr, ptr @PyExc_StopIteration, align 8, !tbaa !39
  %29 = tail call i32 @PyErr_ExceptionMatches(ptr noundef %28) #9
  %.not19 = icmp eq i32 %29, 0
  br i1 %.not19, label %_Py_NewRef.exit, label %30

30:                                               ; preds = %27
  tail call void @PyErr_Clear() #9
  br label %31

31:                                               ; preds = %30, %23
  %32 = load i32, ptr %25, align 8, !tbaa !33
  %33 = icmp slt i32 %32, 0
  br i1 %33, label %_Py_NewRef.exit, label %34

34:                                               ; preds = %31
  %35 = add nuw i32 %32, 1
  store i32 %35, ptr %25, align 8, !tbaa !33
  br label %_Py_NewRef.exit

36:                                               ; preds = %21
  %37 = tail call ptr @PyErr_Occurred() #9
  %.not17 = icmp eq ptr %37, null
  br i1 %.not17, label %38, label %_Py_NewRef.exit

38:                                               ; preds = %36
  %39 = load ptr, ptr @PyExc_StopIteration, align 8, !tbaa !39
  tail call void @PyErr_SetNone(ptr noundef %39) #9
  br label %_Py_NewRef.exit

_Py_NewRef.exit:                                  ; preds = %34, %31, %36, %27, %16, %5, %38, %10
  %.0 = phi ptr [ null, %38 ], [ null, %10 ], [ null, %5 ], [ %20, %16 ], [ null, %27 ], [ null, %36 ], [ %25, %31 ], [ %25, %34 ]
  ret ptr %.0
}